; ModuleID = '60/1079.c'
source_filename = "60/1079.c"
target datalayout = "e-m:e-p270:32:32-p271:32:32-p272:64:64-i64:64-f80:128-n8:16:32:64-S128"
target triple = "x86_64-pc-linux-gnu"

@.str = private unnamed_addr constant [3 x i8] c"%d\00", align 1
@.str.1 = private unnamed_addr constant [6 x i8] c"empty\00", align 1
@.str.2 = private unnamed_addr constant [7 x i8] c"%d %d\0A\00", align 1
@.str.3 = private unnamed_addr constant [2 x i8] c"!\00", align 1

; Function Attrs: noinline nounwind uwtable
define dso_local void @main() #0 {
  %1 = alloca [10002 x i32], align 16
  %2 = alloca i32, align 4
  %3 = alloca i32, align 4
  %4 = alloca i32, align 4
  %5 = bitcast [10002 x i32]* %1 to i8*
  call void @llvm.memset.p0i8.i64(i8* align 16 %5, i8 0, i64 40008, i1 false)
  %6 = call i32 (i8*, ...) @__isoc99_scanf(i8* getelementptr inbounds ([3 x i8], [3 x i8]* @.str, i64 0, i64 0), i32* %2)
  %7 = load i32, i32* %2, align 4
  %8 = icmp slt i32 %7, 5
  br i1 %8, label %9, label %11

9:                                                ; preds = %0
  %10 = call i32 (i8*, ...) @printf(i8* getelementptr inbounds ([6 x i8], [6 x i8]* @.str.1, i64 0, i64 0))
  br label %79

11:                                               ; preds = %0
  %12 = load i32, i32* %2, align 4
  %13 = icmp slt i32 %12, 10001
  br i1 %13, label %14, label %76

14:                                               ; preds = %11
  store i32 2, i32* %3, align 4
  br label %15

15:                                               ; preds = %39, %14
  %16 = load i32, i32* %3, align 4
  %17 = sitofp i32 %16 to double
  %18 = load i32, i32* %2, align 4
  %19 = sitofp i32 %18 to double
  %20 = call double @sqrt(double %19) #4
  %21 = fcmp olt double %17, %20
  br i1 %21, label %22, label %42

22:                                               ; preds = %15
  %23 = load i32, i32* %3, align 4
  %24 = mul nsw i32 2, %23
  store i32 %24, i32* %4, align 4
  br label %25

25:                                               ; preds = %34, %22
  %26 = load i32, i32* %4, align 4
  %27 = load i32, i32* %2, align 4
  %28 = add nsw i32 %27, 1
  %29 = icmp slt i32 %26, %28
  br i1 %29, label %30, label %38

30:                                               ; preds = %25
  %31 = load i32, i32* %4, align 4
  %32 = sext i32 %31 to i64
  %33 = getelementptr inbounds [10002 x i32], [10002 x i32]* %1, i64 0, i64 %32
  store i32 1, i32* %33, align 4
  br label %34

34:                                               ; preds = %30
  %35 = load i32, i32* %4, align 4
  %36 = load i32, i32* %3, align 4
  %37 = add nsw i32 %35, %36
  store i32 %37, i32* %4, align 4
  br label %25

38:                                               ; preds = %25
  br label %39

39:                                               ; preds = %38
  %40 = load i32, i32* %3, align 4
  %41 = add nsw i32 %40, 1
  store i32 %41, i32* %3, align 4
  br label %15

42:                                               ; preds = %15
  store i32 2, i32* %3, align 4
  br label %43

43:                                               ; preds = %72, %42
  %44 = load i32, i32* %3, align 4
  %45 = load i32, i32* %2, align 4
  %46 = sub nsw i32 %45, 1
  %47 = icmp slt i32 %44, %46
  br i1 %47, label %48, label %75

48:                                               ; preds = %43
  %49 = load i32, i32* %3, align 4
  %50 = sext i32 %49 to i64
  %51 = getelementptr inbounds [10002 x i32], [10002 x i32]* %1, i64 0, i64 %50
  %52 = load i32, i32* %51, align 4
  %53 = icmp eq i32 %52, 0
  br i1 %53, label %54, label %71

54:                                               ; preds = %48
  %55 = load i32, i32* %3, align 4
  %56 = add nsw i32 %55, 2
  %57 = sext i32 %56 to i64
  %58 = getelementptr inbounds [10002 x i32], [10002 x i32]* %1, i64 0, i64 %57
  %59 = load i32, i32* %58, align 4
  %60 = icmp eq i32 %59, 0
  br i1 %60, label %61, label %71

61:                                               ; preds = %54
  %62 = load i32, i32* %3, align 4
  %63 = load i32, i32* %2, align 4
  %64 = sub nsw i32 %63, 1
  %65 = icmp slt i32 %62, %64
  br i1 %65, label %66, label %71

66:                                               ; preds = %61
  %67 = load i32, i32* %3, align 4
  %68 = load i32, i32* %3, align 4
  %69 = add nsw i32 %68, 2
  %70 = call i32 (i8*, ...) @printf(i8* getelementptr inbounds ([7 x i8], [7 x i8]* @.str.2, i64 0, i64 0), i32 %67, i32 %69)
  br label %71

71:                                               ; preds = %66, %61, %54, %48
  br label %72

72:                                               ; preds = %71
  %73 = load i32, i32* %3, align 4
  %74 = add nsw i32 %73, 1
  store i32 %74, i32* %3, align 4
  br label %43

75:                                               ; preds = %43
  br label %78

76:                                               ; preds = %11
  %77 = call i32 (i8*, ...) @printf(i8* getelementptr inbounds ([2 x i8], [2 x i8]* @.str.3, i64 0, i64 0))
  br label %78

78:                                               ; preds = %76, %75
  br label %79

79:                                               ; preds = %78, %9
  ret void
}

; Function Attrs: argmemonly nounwind willreturn
declare void @llvm.memset.p0i8.i64(i8* nocapture writeonly, i8, i64, i1 immarg) #1

declare dso_local i32 @__isoc99_scanf(i8*, ...) #2

declare dso_local i32 @printf(i8*, ...) #2

; Function Attrs: nounwind
declare dso_local double @sqrt(double) #3


!llvm.module.flags = !{!0}
!llvm.ident = !{!1}

!0 = !{i32 1, !"wchar_size", i32 4}
!1 = !{!"clang version 10.0.0-4ubuntu1 "}
