; ModuleID = 'source-C-CXX/59/1079.c'
source_filename = "source-C-CXX/59/1079.c"
target datalayout = "e-m:e-p270:32:32-p271:32:32-p272:64:64-i64:64-f80:128-n8:16:32:64-S128"
target triple = "x86_64-pc-linux-gnu"

@.str = private unnamed_addr constant [3 x i8] c"%d\00", align 1
@.str.1 = private unnamed_addr constant [6 x i8] c"empty\00", align 1
@.str.2 = private unnamed_addr constant [7 x i8] c"%d %d\0A\00", align 1

; Function Attrs: nofree nounwind sspstrong uwtable
define dso_local void @main() local_unnamed_addr #0 {
  %1 = alloca [10002 x i32], align 16
  %2 = alloca i32, align 4
  %3 = bitcast [10002 x i32]* %1 to i8*
  call void @llvm.lifetime.start.p0i8(i64 40008, i8* nonnull %3) #6
  call void @llvm.memset.p0i8.i64(i8* noundef nonnull align 16 dereferenceable(40008) %3, i8 0, i64 40008, i1 false)
  %4 = bitcast i32* %2 to i8*
  call void @llvm.lifetime.start.p0i8(i64 4, i8* nonnull %4) #6
  %5 = call i32 (i8*, ...) @__isoc99_scanf(i8* getelementptr inbounds ([3 x i8], [3 x i8]* @.str, i64 0, i64 0), i32* nonnull %2)
  %6 = load i32, i32* %2, align 4, !tbaa !5
  %7 = icmp slt i32 %6, 5
  br i1 %7, label %8, label %10

8:                                                ; preds = %0
  %9 = call i32 (i8*, ...) @printf(i8* nonnull dereferenceable(1) getelementptr inbounds ([6 x i8], [6 x i8]* @.str.1, i64 0, i64 0))
  br label %66

10:                                               ; preds = %0
  %11 = icmp slt i32 %6, 10001
  br i1 %11, label %12, label %64

12:                                               ; preds = %10
  %13 = sitofp i32 %6 to double
  %14 = call double @sqrt(double %13) #6
  %15 = fcmp ogt double %14, 2.000000e+00
  br i1 %15, label %19, label %16

16:                                               ; preds = %32, %12
  %17 = load i32, i32* %2, align 4, !tbaa !5
  %18 = icmp sgt i32 %17, 3
  br i1 %18, label %40, label %66

19:                                               ; preds = %12, %32
  %20 = phi i64 [ %39, %32 ], [ 2, %12 ]
  %21 = phi i64 [ %38, %32 ], [ 4, %12 ]
  %22 = phi i32 [ %33, %32 ], [ 2, %12 ]
  %23 = shl nuw nsw i32 %22, 1
  %24 = load i32, i32* %2, align 4, !tbaa !5
  %25 = icmp sgt i32 %23, %24
  br i1 %25, label %32, label %26

26:                                               ; preds = %19, %26
  %27 = phi i64 [ %29, %26 ], [ %21, %19 ]
  %28 = getelementptr inbounds [10002 x i32], [10002 x i32]* %1, i64 0, i64 %27
  store i32 1, i32* %28, align 4, !tbaa !5
  %29 = add i64 %27, %20
  %30 = trunc i64 %29 to i32
  %31 = icmp slt i32 %24, %30
  br i1 %31, label %32, label %26, !llvm.loop !9

32:                                               ; preds = %26, %19
  %33 = add nuw nsw i32 %22, 1
  %34 = sitofp i32 %33 to double
  %35 = sitofp i32 %24 to double
  %36 = call double @sqrt(double %35) #6
  %37 = fcmp ogt double %36, %34
  %38 = add i64 %21, 2
  %39 = add nuw i64 %20, 1
  br i1 %37, label %19, label %16, !llvm.loop !11

40:                                               ; preds = %16, %57
  %41 = phi i32 [ %58, %57 ], [ %17, %16 ]
  %42 = phi i64 [ %59, %57 ], [ 2, %16 ]
  %43 = phi i32 [ %60, %57 ], [ 2, %16 ]
  %44 = getelementptr inbounds [10002 x i32], [10002 x i32]* %1, i64 0, i64 %42
  %45 = load i32, i32* %44, align 4, !tbaa !5
  %46 = icmp eq i32 %45, 0
  br i1 %46, label %47, label %57

47:                                               ; preds = %40
  %48 = add nuw nsw i64 %42, 2
  %49 = getelementptr inbounds [10002 x i32], [10002 x i32]* %1, i64 0, i64 %48
  %50 = load i32, i32* %49, align 4, !tbaa !5
  %51 = icmp eq i32 %50, 0
  br i1 %51, label %52, label %57

52:                                               ; preds = %47
  %53 = add nuw nsw i32 %43, 2
  %54 = trunc i64 %42 to i32
  %55 = call i32 (i8*, ...) @printf(i8* nonnull dereferenceable(1) getelementptr inbounds ([7 x i8], [7 x i8]* @.str.2, i64 0, i64 0), i32 %54, i32 %53)
  %56 = load i32, i32* %2, align 4, !tbaa !5
  br label %57

57:                                               ; preds = %40, %47, %52
  %58 = phi i32 [ %41, %40 ], [ %41, %47 ], [ %56, %52 ]
  %59 = add nuw nsw i64 %42, 1
  %60 = add nuw nsw i32 %43, 1
  %61 = add nsw i32 %58, -1
  %62 = sext i32 %61 to i64
  %63 = icmp slt i64 %59, %62
  br i1 %63, label %40, label %66, !llvm.loop !12

64:                                               ; preds = %10
  %65 = call i32 @putchar(i32 33)
  br label %66

66:                                               ; preds = %57, %16, %64, %8
  call void @llvm.lifetime.end.p0i8(i64 4, i8* nonnull %4) #6
  call void @llvm.lifetime.end.p0i8(i64 40008, i8* nonnull %3) #6
  ret void
}

; Function Attrs: argmemonly mustprogress nofree nosync nounwind willreturn
declare void @llvm.lifetime.start.p0i8(i64 immarg, i8* nocapture) #1

; Function Attrs: argmemonly mustprogress nofree nounwind willreturn writeonly
declare void @llvm.memset.p0i8.i64(i8* nocapture writeonly, i8, i64, i1 immarg) #2

; Function Attrs: nofree nounwind
declare noundef i32 @__isoc99_scanf(i8* nocapture noundef readonly, ...) local_unnamed_addr #3

; Function Attrs: nofree nounwind
declare noundef i32 @printf(i8* nocapture noundef readonly, ...) local_unnamed_addr #3

; Function Attrs: mustprogress nofree nounwind willreturn
declare double @sqrt(double) local_unnamed_addr #4

; Function Attrs: argmemonly mustprogress nofree nosync nounwind willreturn
declare void @llvm.lifetime.end.p0i8(i64 immarg, i8* nocapture) #1

; Function Attrs: nofree nounwind
declare noundef i32 @putchar(i32 noundef) local_unnamed_addr #5


!llvm.module.flags = !{!0, !1, !2, !3}
!llvm.ident = !{!4}

!0 = !{i32 1, !"wchar_size", i32 4}
!1 = !{i32 7, !"PIC Level", i32 2}
!2 = !{i32 7, !"PIE Level", i32 2}
!3 = !{i32 7, !"uwtable", i32 1}
!4 = !{!"clang version 13.0.0"}
!5 = !{!6, !6, i64 0}
!6 = !{!"int", !7, i64 0}
!7 = !{!"omnipotent char", !8, i64 0}
!8 = !{!"Simple C/C++ TBAA"}
!9 = distinct !{!9, !10}
!10 = !{!"llvm.loop.mustprogress"}
!11 = distinct !{!11, !10}
!12 = distinct !{!12, !10}
